target datalayout = "e-m:e-p270:32:32-p271:32:32-p272:64:64-i64:64-i128:128-f80:128-n8:16:32:64-S128"
target triple = "x86_64-unknown-linux-gnu"

%"class.std::__cxx11::basic_string" = type { %"struct.std::__cxx11::basic_string<char>::_Alloc_hider", i64, %union.anon }
%"struct.std::__cxx11::basic_string<char>::_Alloc_hider" = type { ptr }
%union.anon = type { i64, [8 x i8] }
%class.symbol = type { ptr }
%class.params = type <{ %class.svector.0, %"struct.std::atomic", [4 x i8] }>
%class.svector.0 = type { %class.vector.1 }
%class.vector.1 = type { ptr }
%"struct.std::atomic" = type { %"struct.std::__atomic_base" }
%"struct.std::__atomic_base" = type { i32 }
%"struct.std::pair" = type { %class.symbol, %"struct.params::value" }
%"struct.params::value" = type { i32, %union.anon.2 }
%union.anon.2 = type { double }

; Function Attrs: mustprogress nounwind uwtable
define linkonce_odr noundef zeroext i1 @_ZSteqIcSt11char_traitsIcESaIcEEbRKNSt7__cxx1112basic_stringIT_T0_T1_EEPKS5_(ptr noundef nonnull align 8 dereferenceable(32) %__lhs, ptr noundef %__rhs) #4 comdat {
entry:
  %__lhs.addr = alloca ptr, align 8
  %__rhs.addr = alloca ptr, align 8
  store ptr %__lhs, ptr %__lhs.addr, align 8
  store ptr %__rhs, ptr %__rhs.addr, align 8
  %0 = load ptr, ptr %__lhs.addr, align 8
  %1 = load ptr, ptr %__rhs.addr, align 8
  %call = call noundef i32 @_ZNKSt7__cxx1112basic_stringIcSt11char_traitsIcESaIcEE7compareEPKc(ptr noundef nonnull align 8 dereferenceable(32) %0, ptr noundef %1) #3
  %cmp = icmp eq i32 %call, 0
  ret i1 %cmp
}

; Function Attrs: mustprogress nounwind uwtable
define linkonce_odr hidden noundef ptr @_ZNK6symbol8bare_strEv(ptr noundef nonnull align 8 dereferenceable(8) %this) #4 comdat align 2 {
entry:
  %this.addr = alloca ptr, align 8
  store ptr %this, ptr %this.addr, align 8
  %this1 = load ptr, ptr %this.addr, align 8
  %m_data = getelementptr inbounds %class.symbol, ptr %this1, i32 0, i32 0
  %0 = load ptr, ptr %m_data, align 8
  ret ptr %0
}

; Function Attrs: mustprogress nounwind uwtable
define linkonce_odr hidden noundef zeroext i1 @_ZNK6symbol12is_numericalEv(ptr noundef nonnull align 8 dereferenceable(8) %this) #4 comdat align 2 {
entry:
  %this.addr = alloca ptr, align 8
  store ptr %this, ptr %this.addr, align 8
  %this1 = load ptr, ptr %this.addr, align 8
  %m_data = getelementptr inbounds %class.symbol, ptr %this1, i32 0, i32 0
  %0 = load ptr, ptr %m_data, align 8
  %1 = ptrtoint ptr %0 to i64
  %and = and i64 %1, 7
  %cmp = icmp eq i64 %and, 1
  ret i1 %cmp
}

; Function Attrs: mustprogress nounwind uwtable
define linkonce_odr hidden noundef i32 @_ZNK6vectorISt4pairI6symbolN6params5valueEELb0EjE4sizeEv(ptr noundef nonnull align 8 dereferenceable(8) %this) #4 comdat align 2 {
entry:
  %retval = alloca i32, align 4
  %this.addr = alloca ptr, align 8
  store ptr %this, ptr %this.addr, align 8
  %this1 = load ptr, ptr %this.addr, align 8
  %m_data = getelementptr inbounds %class.vector.1, ptr %this1, i32 0, i32 0
  %0 = load ptr, ptr %m_data, align 8
  %cmp = icmp eq ptr %0, null
  br i1 %cmp, label %if.then, label %if.end

if.then:                                          ; preds = %entry
  store i32 0, ptr %retval, align 4
  br label %return

if.end:                                           ; preds = %entry
  %m_data2 = getelementptr inbounds %class.vector.1, ptr %this1, i32 0, i32 0
  %1 = load ptr, ptr %m_data2, align 8
  %arrayidx = getelementptr inbounds i32, ptr %1, i64 -1
  %2 = load i32, ptr %arrayidx, align 4
  store i32 %2, ptr %retval, align 4
  br label %return

return:                                           ; preds = %if.end, %if.then
  %3 = load i32, ptr %retval, align 4
  ret i32 %3
}

; Function Attrs: mustprogress nounwind uwtable
define linkonce_odr hidden noundef zeroext i1 @_ZNK6vectorISt4pairI6symbolN6params5valueEELb0EjE5emptyEv(ptr noundef nonnull align 8 dereferenceable(8) %this) #4 comdat align 2 {
entry:
  %this.addr = alloca ptr, align 8
  store ptr %this, ptr %this.addr, align 8
  %this1 = load ptr, ptr %this.addr, align 8
  %m_data = getelementptr inbounds %class.vector.1, ptr %this1, i32 0, i32 0
  %0 = load ptr, ptr %m_data, align 8
  %cmp = icmp eq ptr %0, null
  br i1 %cmp, label %lor.end, label %lor.rhs

lor.rhs:                                          ; preds = %entry
  %m_data2 = getelementptr inbounds %class.vector.1, ptr %this1, i32 0, i32 0
  %1 = load ptr, ptr %m_data2, align 8
  %arrayidx = getelementptr inbounds i32, ptr %1, i64 -1
  %2 = load i32, ptr %arrayidx, align 4
  %cmp3 = icmp eq i32 %2, 0
  br label %lor.end

lor.end:                                          ; preds = %lor.rhs, %entry
  %3 = phi i1 [ true, %entry ], [ %cmp3, %lor.rhs ]
  ret i1 %3
}

; Function Attrs: mustprogress uwtable
define linkonce_odr hidden noundef zeroext i1 @_ZeqRK6symbolPKc(ptr noundef nonnull align 8 dereferenceable(8) %s1, ptr noundef %s2) #5 comdat personality ptr @__gxx_personality_v0 {
entry:
  %retval = alloca i1, align 1
  %s1.addr = alloca ptr, align 8
  %s2.addr = alloca ptr, align 8
  %ref.tmp = alloca %"class.std::__cxx11::basic_string", align 8
  %exn.slot = alloca ptr, align 8
  %ehselector.slot = alloca i32, align 4
  store ptr %s1, ptr %s1.addr, align 8
  store ptr %s2, ptr %s2.addr, align 8
  %0 = load ptr, ptr %s1.addr, align 8
  %m_data = getelementptr inbounds %class.symbol, ptr %0, i32 0, i32 0
  %1 = load ptr, ptr %m_data, align 8
  %cmp = icmp eq ptr %1, null
  br i1 %cmp, label %land.lhs.true, label %if.end

land.lhs.true:                                    ; preds = %entry
  %2 = load ptr, ptr %s2.addr, align 8
  %cmp1 = icmp eq ptr %2, null
  br i1 %cmp1, label %if.then, label %if.end

if.then:                                          ; preds = %land.lhs.true
  store i1 true, ptr %retval, align 1
  br label %return

if.end:                                           ; preds = %land.lhs.true, %entry
  %3 = load ptr, ptr %s1.addr, align 8
  %m_data2 = getelementptr inbounds %class.symbol, ptr %3, i32 0, i32 0
  %4 = load ptr, ptr %m_data2, align 8
  %cmp3 = icmp eq ptr %4, null
  br i1 %cmp3, label %if.then5, label %lor.lhs.false

lor.lhs.false:                                    ; preds = %if.end
  %5 = load ptr, ptr %s2.addr, align 8
  %cmp4 = icmp eq ptr %5, null
  br i1 %cmp4, label %if.then5, label %if.end6

if.then5:                                         ; preds = %lor.lhs.false, %if.end
  store i1 false, ptr %retval, align 1
  br label %return

if.end6:                                          ; preds = %lor.lhs.false
  %6 = load ptr, ptr %s1.addr, align 8
  %call = call noundef zeroext i1 @_ZNK6symbol12is_numericalEv(ptr noundef nonnull align 8 dereferenceable(8) %6)
  br i1 %call, label %if.end11, label %if.then7

if.then7:                                         ; preds = %if.end6
  %7 = load ptr, ptr %s1.addr, align 8
  %call8 = call noundef ptr @_ZNK6symbol8bare_strEv(ptr noundef nonnull align 8 dereferenceable(8) %7)
  %8 = load ptr, ptr %s2.addr, align 8
  %call9 = call i32 @strcmp(ptr noundef %call8, ptr noundef %8) #17
  %cmp10 = icmp eq i32 %call9, 0
  store i1 %cmp10, ptr %retval, align 1
  br label %return

if.end11:                                         ; preds = %if.end6
  %9 = load ptr, ptr %s1.addr, align 8
  call void @_ZNK6symbol3strB5cxx11Ev(ptr sret(%"class.std::__cxx11::basic_string") align 8 %ref.tmp, ptr noundef nonnull align 8 dereferenceable(8) %9)
  %10 = load ptr, ptr %s2.addr, align 8
  %call12 = invoke noundef zeroext i1 @_ZSteqIcSt11char_traitsIcESaIcEEbRKNSt7__cxx1112basic_stringIT_T0_T1_EEPKS5_(ptr noundef nonnull align 8 dereferenceable(32) %ref.tmp, ptr noundef %10)
          to label %invoke.cont unwind label %lpad

invoke.cont:                                      ; preds = %if.end11
  store i1 %call12, ptr %retval, align 1
  call void @_ZNSt7__cxx1112basic_stringIcSt11char_traitsIcESaIcEED1Ev(ptr noundef nonnull align 8 dereferenceable(32) %ref.tmp) #3
  br label %return

lpad:                                             ; preds = %if.end11
  %11 = landingpad { ptr, i32 }
          cleanup
  %12 = extractvalue { ptr, i32 } %11, 0
  store ptr %12, ptr %exn.slot, align 8
  %13 = extractvalue { ptr, i32 } %11, 1
  store i32 %13, ptr %ehselector.slot, align 4
  call void @_ZNSt7__cxx1112basic_stringIcSt11char_traitsIcESaIcEED1Ev(ptr noundef nonnull align 8 dereferenceable(32) %ref.tmp) #3
  br label %eh.resume

return:                                           ; preds = %invoke.cont, %if.then7, %if.then5, %if.then
  %14 = load i1, ptr %retval, align 1
  ret i1 %14

eh.resume:                                        ; preds = %lpad
  %exn = load ptr, ptr %exn.slot, align 8
  %sel = load i32, ptr %ehselector.slot, align 4
  %lpad.val = insertvalue { ptr, i32 } poison, ptr %exn, 0
  %lpad.val13 = insertvalue { ptr, i32 } %lpad.val, i32 %sel, 1
  resume { ptr, i32 } %lpad.val13
}

; Function Attrs: mustprogress nounwind uwtable
define linkonce_odr hidden noundef ptr @_ZNK6vectorISt4pairI6symbolN6params5valueEELb0EjE3endEv(ptr noundef nonnull align 8 dereferenceable(8) %this) #4 comdat align 2 {
entry:
  %this.addr = alloca ptr, align 8
  store ptr %this, ptr %this.addr, align 8
  %this1 = load ptr, ptr %this.addr, align 8
  %m_data = getelementptr inbounds %class.vector.1, ptr %this1, i32 0, i32 0
  %0 = load ptr, ptr %m_data, align 8
  %call = call noundef i32 @_ZNK6vectorISt4pairI6symbolN6params5valueEELb0EjE4sizeEv(ptr noundef nonnull align 8 dereferenceable(8) %this1)
  %idx.ext = zext i32 %call to i64
  %add.ptr = getelementptr inbounds %"struct.std::pair", ptr %0, i64 %idx.ext
  ret ptr %add.ptr
}

; Function Attrs: mustprogress nounwind uwtable
define linkonce_odr hidden noundef ptr @_ZNK6vectorISt4pairI6symbolN6params5valueEELb0EjE5beginEv(ptr noundef nonnull align 8 dereferenceable(8) %this) #4 comdat align 2 {
entry:
  %this.addr = alloca ptr, align 8
  store ptr %this, ptr %this.addr, align 8
  %this1 = load ptr, ptr %this.addr, align 8
  %m_data = getelementptr inbounds %class.vector.1, ptr %this1, i32 0, i32 0
  %0 = load ptr, ptr %m_data, align 8
  ret ptr %0
}

; Function Attrs: mustprogress uwtable
define linkonce_odr hidden noundef zeroext i1 @_ZNK6params5emptyEv(ptr noundef nonnull align 8 dereferenceable(12) %this) #5 comdat align 2 {
entry:
  %this.addr = alloca ptr, align 8
  store ptr %this, ptr %this.addr, align 8
  %this1 = load ptr, ptr %this.addr, align 8
  %m_entries = getelementptr inbounds %class.params, ptr %this1, i32 0, i32 0
  %call = call noundef zeroext i1 @_ZNK6vectorISt4pairI6symbolN6params5valueEELb0EjE5emptyEv(ptr noundef nonnull align 8 dereferenceable(8) %m_entries)
  ret i1 %call
}

; Function Attrs: mustprogress uwtable
define hidden ptr @_ZNK6params7get_symEPKcRK6symbol(ptr noundef nonnull align 8 dereferenceable(12) %this, ptr noundef %k, ptr noundef nonnull align 8 dereferenceable(8) %_default) #5 align 2 {
entry:
  %retval = alloca %class.symbol, align 8
  %this.addr = alloca ptr, align 8
  %k.addr = alloca ptr, align 8
  %_default.addr = alloca ptr, align 8
  %it = alloca ptr, align 8
  %end = alloca ptr, align 8
  store ptr %this, ptr %this.addr, align 8
  store ptr %k, ptr %k.addr, align 8
  store ptr %_default, ptr %_default.addr, align 8
  %this1 = load ptr, ptr %this.addr, align 8
  %call = call noundef zeroext i1 @_ZNK6params5emptyEv(ptr noundef nonnull align 8 dereferenceable(12) %this1)
  br i1 %call, label %if.then, label %if.end

if.then:                                          ; preds = %entry
  %0 = load ptr, ptr %_default.addr, align 8
  call void @llvm.memcpy.p0.p0.i64(ptr align 8 %retval, ptr align 8 %0, i64 8, i1 false)
  br label %return

if.end:                                           ; preds = %entry
  %m_entries = getelementptr inbounds %class.params, ptr %this1, i32 0, i32 0
  %call2 = call noundef ptr @_ZNK6vectorISt4pairI6symbolN6params5valueEELb0EjE5beginEv(ptr noundef nonnull align 8 dereferenceable(8) %m_entries)
  store ptr %call2, ptr %it, align 8
  %m_entries3 = getelementptr inbounds %class.params, ptr %this1, i32 0, i32 0
  %call4 = call noundef ptr @_ZNK6vectorISt4pairI6symbolN6params5valueEELb0EjE3endEv(ptr noundef nonnull align 8 dereferenceable(8) %m_entries3)
  store ptr %call4, ptr %end, align 8
  br label %for.cond

for.cond:                                         ; preds = %for.inc, %if.end
  %1 = load ptr, ptr %it, align 8
  %2 = load ptr, ptr %end, align 8
  %cmp = icmp ne ptr %1, %2
  br i1 %cmp, label %for.body, label %for.end

for.body:                                         ; preds = %for.cond
  %3 = load ptr, ptr %it, align 8
  %first = getelementptr inbounds %"struct.std::pair", ptr %3, i32 0, i32 0
  %4 = load ptr, ptr %k.addr, align 8
  %call5 = call noundef zeroext i1 @_ZeqRK6symbolPKc(ptr noundef nonnull align 8 dereferenceable(8) %first, ptr noundef %4)
  br i1 %call5, label %land.lhs.true, label %if.end9

land.lhs.true:                                    ; preds = %for.body
  %5 = load ptr, ptr %it, align 8
  %second = getelementptr inbounds %"struct.std::pair", ptr %5, i32 0, i32 1
  %m_kind = getelementptr inbounds %"struct.params::value", ptr %second, i32 0, i32 0
  %6 = load i32, ptr %m_kind, align 8
  %cmp6 = icmp eq i32 %6, 8
  br i1 %cmp6, label %if.then7, label %if.end9

if.then7:                                         ; preds = %land.lhs.true
  %7 = load ptr, ptr %it, align 8
  %second8 = getelementptr inbounds %"struct.std::pair", ptr %7, i32 0, i32 1
  %8 = getelementptr inbounds %"struct.params::value", ptr %second8, i32 0, i32 1
  call void @llvm.memcpy.p0.p0.i64(ptr align 8 %retval, ptr align 8 %8, i64 8, i1 false)
  br label %return

if.end9:                                          ; preds = %land.lhs.true, %for.body
  br label %for.inc

for.inc:                                          ; preds = %if.end9
  %9 = load ptr, ptr %it, align 8
  %incdec.ptr = getelementptr inbounds %"struct.std::pair", ptr %9, i32 1
  store ptr %incdec.ptr, ptr %it, align 8
  br label %for.cond, !llvm.loop !25

for.end:                                          ; preds = %for.cond
  %10 = load ptr, ptr %_default.addr, align 8
  call void @llvm.memcpy.p0.p0.i64(ptr align 8 %retval, ptr align 8 %10, i64 8, i1 false)
  br label %return

return:                                           ; preds = %for.end, %if.then7, %if.then
  %coerce.dive = getelementptr inbounds %class.symbol, ptr %retval, i32 0, i32 0
  %11 = load ptr, ptr %coerce.dive, align 8
  ret ptr %11
}