; Function Attrs: mustprogress uwtable
define hidden ptr @_ZNK6params7get_symEPKcRK6symbol(ptr nocapture noundef nonnull readonly align 8 dereferenceable(12) %this, ptr noundef %k, ptr nocapture noundef nonnull readonly align 8 dereferenceable(8) %_default) local_unnamed_addr #3 align 2 personality ptr @__gxx_personality_v0 {
entry:
  %ref.tmp.i = alloca %"class.std::__cxx11::basic_string", align 8
  %0 = load ptr, ptr %this, align 8
  %cmp.i.i = icmp eq ptr %0, null
  br i1 %cmp.i.i, label %return, label %_ZNK6params5emptyEv.exit

_ZNK6params5emptyEv.exit:                         ; preds = %entry
  %arrayidx.i.i = getelementptr inbounds i8, ptr %0, i64 -4
  %1 = load i32, ptr %arrayidx.i.i, align 4
  %cmp3.i.i = icmp eq i32 %1, 0
  br i1 %cmp3.i.i, label %return, label %for.body.lr.ph

for.body.lr.ph:                                   ; preds = %_ZNK6params5emptyEv.exit
  %2 = zext i32 %1 to i64
  %add.ptr.i = getelementptr inbounds %"struct.std::pair", ptr %0, i64 %2
  %cmp1.i = icmp eq ptr %k, null
  br i1 %cmp1.i, label %for.body.us, label %for.body

for.body.us:                                      ; preds = %for.body.lr.ph, %for.inc.us
  %it.016.us = phi ptr [ %incdec.ptr.us, %for.inc.us ], [ %0, %for.body.lr.ph ]
  call void @llvm.lifetime.start.p0(i64 32, ptr nonnull %ref.tmp.i)
  %3 = load ptr, ptr %it.016.us, align 8
  %cmp.i.us = icmp eq ptr %3, null
  call void @llvm.lifetime.end.p0(i64 32, ptr nonnull %ref.tmp.i)
  br i1 %cmp.i.us, label %_ZeqRK6symbolPKc.exit.thread.us, label %for.inc.us

_ZeqRK6symbolPKc.exit.thread.us:                  ; preds = %for.body.us
  %second.us = getelementptr inbounds i8, ptr %it.016.us, i64 8
  %4 = load i32, ptr %second.us, align 8
  %cmp6.us = icmp eq i32 %4, 8
  br i1 %cmp6.us, label %if.then7, label %for.inc.us

for.inc.us:                                       ; preds = %for.body.us, %_ZeqRK6symbolPKc.exit.thread.us
  %incdec.ptr.us = getelementptr inbounds i8, ptr %it.016.us, i64 24
  %cmp.not.us = icmp eq ptr %incdec.ptr.us, %add.ptr.i
  br i1 %cmp.not.us, label %return, label %for.body.us, !llvm.loop !30

for.body:                                         ; preds = %for.body.lr.ph, %for.inc
  %it.016 = phi ptr [ %incdec.ptr, %for.inc ], [ %0, %for.body.lr.ph ]
  call void @llvm.lifetime.start.p0(i64 32, ptr nonnull %ref.tmp.i)
  %5 = load ptr, ptr %it.016, align 8
  %cmp.i = icmp eq ptr %5, null
  br i1 %cmp.i, label %_ZeqRK6symbolPKc.exit.thread12, label %if.end6.i

_ZeqRK6symbolPKc.exit.thread12:                   ; preds = %for.body
  call void @llvm.lifetime.end.p0(i64 32, ptr nonnull %ref.tmp.i)
  br label %for.inc

if.end6.i:                                        ; preds = %for.body
  %6 = ptrtoint ptr %5 to i64
  %and.i.i = and i64 %6, 7
  %cmp.i.i10 = icmp eq i64 %and.i.i, 1
  br i1 %cmp.i.i10, label %if.end11.i, label %_ZeqRK6symbolPKc.exit

if.end11.i:                                       ; preds = %if.end6.i
  call void @_ZNK6symbol3strB5cxx11Ev(ptr nonnull sret(%"class.std::__cxx11::basic_string") align 8 %ref.tmp.i, ptr noundef nonnull align 8 dereferenceable(8) %it.016)
  %call.i.i = call noundef i32 @_ZNKSt7__cxx1112basic_stringIcSt11char_traitsIcESaIcEE7compareEPKc(ptr noundef nonnull align 8 dereferenceable(32) %ref.tmp.i, ptr noundef nonnull %k) #15
  %cmp.i9.i = icmp eq i32 %call.i.i, 0
  call void @_ZNSt7__cxx1112basic_stringIcSt11char_traitsIcESaIcEED1Ev(ptr noundef nonnull align 8 dereferenceable(32) %ref.tmp.i) #15
  call void @llvm.lifetime.end.p0(i64 32, ptr nonnull %ref.tmp.i)
  br i1 %cmp.i9.i, label %land.lhs.true, label %for.inc

_ZeqRK6symbolPKc.exit:                            ; preds = %if.end6.i
  %call9.i = call i32 @strcmp(ptr noundef nonnull dereferenceable(1) %5, ptr noundef nonnull dereferenceable(1) %k) #18
  %cmp10.i = icmp eq i32 %call9.i, 0
  call void @llvm.lifetime.end.p0(i64 32, ptr nonnull %ref.tmp.i)
  br i1 %cmp10.i, label %land.lhs.true, label %for.inc

land.lhs.true:                                    ; preds = %if.end11.i, %_ZeqRK6symbolPKc.exit
  %second = getelementptr inbounds i8, ptr %it.016, i64 8
  %7 = load i32, ptr %second, align 8
  %cmp6 = icmp eq i32 %7, 8
  br i1 %cmp6, label %if.then7, label %for.inc

if.then7:                                         ; preds = %land.lhs.true, %_ZeqRK6symbolPKc.exit.thread.us
  %.us-phi = phi ptr [ %it.016.us, %_ZeqRK6symbolPKc.exit.thread.us ], [ %it.016, %land.lhs.true ]
  %8 = getelementptr inbounds i8, ptr %.us-phi, i64 16
  br label %return

for.inc:                                          ; preds = %if.end11.i, %_ZeqRK6symbolPKc.exit.thread12, %_ZeqRK6symbolPKc.exit, %land.lhs.true
  %incdec.ptr = getelementptr inbounds i8, ptr %it.016, i64 24
  %cmp.not = icmp eq ptr %incdec.ptr, %add.ptr.i
  br i1 %cmp.not, label %return, label %for.body, !llvm.loop !30

return:                                           ; preds = %for.inc, %for.inc.us, %entry, %_ZNK6params5emptyEv.exit, %if.then7
  %retval.sroa.0.0.in = phi ptr [ %8, %if.then7 ], [ %_default, %_ZNK6params5emptyEv.exit ], [ %_default, %entry ], [ %_default, %for.inc.us ], [ %_default, %for.inc ]
  %retval.sroa.0.0 = load ptr, ptr %retval.sroa.0.0.in, align 8
  ret ptr %retval.sroa.0.0
}